target datalayout = "e-m:e-p270:32:32-p271:32:32-p272:64:64-i64:64-i128:128-f80:128-n8:16:32:64-S128"
target triple = "x86_64-pc-linux-gnu"

%"class.cv::Range" = type { i32, i32 }
%"class.cv::ParallelLoopBody" = type { ptr }
%"struct.cv::hal::cpu_baseline::(anonymous namespace)::YUV422toRGB8Invoker.27" = type <{ %"class.cv::ParallelLoopBody", ptr, i64, ptr, i64, i32, [4 x i8] }>

; Function Attrs: mustprogress nounwind uwtable
define internal noundef zeroext i8 @_ZN2cvL13saturate_castIhEET_i(i32 noundef %0) #2 {
  %2 = alloca i32, align 4
  store i32 %0, ptr %2, align 4
  %3 = load i32, ptr %2, align 4
  %4 = icmp ule i32 %3, 255
  br i1 %4, label %5, label %7

5:                                                ; preds = %1
  %6 = load i32, ptr %2, align 4
  br label %11

7:                                                ; preds = %1
  %8 = load i32, ptr %2, align 4
  %9 = icmp sgt i32 %8, 0
  %10 = select i1 %9, i32 255, i32 0
  br label %11

11:                                               ; preds = %7, %5
  %12 = phi i32 [ %6, %5 ], [ %10, %7 ]
  %13 = trunc i32 %12 to i8
  ret i8 %13
}

; Function Attrs: mustprogress nounwind uwtable
define linkonce_odr noundef nonnull align 4 dereferenceable(4) ptr @_ZSt3maxIiERKT_S2_S2_(ptr noundef nonnull align 4 dereferenceable(4) %0, ptr noundef nonnull align 4 dereferenceable(4) %1) #2 comdat {
  %3 = alloca ptr, align 8
  %4 = alloca ptr, align 8
  %5 = alloca ptr, align 8
  store ptr %0, ptr %4, align 8
  store ptr %1, ptr %5, align 8
  %6 = load ptr, ptr %4, align 8
  %7 = load i32, ptr %6, align 4
  %8 = load ptr, ptr %5, align 8
  %9 = load i32, ptr %8, align 4
  %10 = icmp slt i32 %7, %9
  br i1 %10, label %11, label %13

11:                                               ; preds = %2
  %12 = load ptr, ptr %5, align 8
  store ptr %12, ptr %3, align 8
  br label %15

13:                                               ; preds = %2
  %14 = load ptr, ptr %4, align 8
  store ptr %14, ptr %3, align 8
  br label %15

15:                                               ; preds = %13, %11
  %16 = load ptr, ptr %3, align 8
  ret ptr %16
}

; Function Attrs: mustprogress uwtable
define internal void @_ZN2cv3hal12cpu_baseline12_GLOBAL__N_112yRGBuvToRGBAEhiiiRhS3_S3_S3_(i8 noundef zeroext %0, i32 noundef %1, i32 noundef %2, i32 noundef %3, ptr noundef nonnull align 1 dereferenceable(1) %4, ptr noundef nonnull align 1 dereferenceable(1) %5, ptr noundef nonnull align 1 dereferenceable(1) %6, ptr noundef nonnull align 1 dereferenceable(1) %7) #0 {
  %9 = alloca i8, align 1
  %10 = alloca i32, align 4
  %11 = alloca i32, align 4
  %12 = alloca i32, align 4
  %13 = alloca ptr, align 8
  %14 = alloca ptr, align 8
  %15 = alloca ptr, align 8
  %16 = alloca ptr, align 8
  %17 = alloca i32, align 4
  %18 = alloca i32, align 4
  %19 = alloca i32, align 4
  %20 = alloca i32, align 4
  store i8 %0, ptr %9, align 1
  store i32 %1, ptr %10, align 4
  store i32 %2, ptr %11, align 4
  store i32 %3, ptr %12, align 4
  store ptr %4, ptr %13, align 8
  store ptr %5, ptr %14, align 8
  store ptr %6, ptr %15, align 8
  store ptr %7, ptr %16, align 8
  %21 = load i8, ptr %9, align 1
  %22 = zext i8 %21 to i32
  store i32 %22, ptr %17, align 4
  store i32 0, ptr %19, align 4
  %23 = load i32, ptr %17, align 4
  %24 = sub nsw i32 %23, 16
  store i32 %24, ptr %20, align 4
  %25 = call noundef nonnull align 4 dereferenceable(4) ptr @_ZSt3maxIiERKT_S2_S2_(ptr noundef nonnull align 4 dereferenceable(4) %19, ptr noundef nonnull align 4 dereferenceable(4) %20)
  %26 = load i32, ptr %25, align 4
  %27 = mul nsw i32 %26, 1220542
  store i32 %27, ptr %18, align 4
  %28 = load i32, ptr %18, align 4
  %29 = load i32, ptr %10, align 4
  %30 = add nsw i32 %28, %29
  %31 = ashr i32 %30, 20
  %32 = call noundef zeroext i8 @_ZN2cvL13saturate_castIhEET_i(i32 noundef %31)
  %33 = load ptr, ptr %13, align 8
  store i8 %32, ptr %33, align 1
  %34 = load i32, ptr %18, align 4
  %35 = load i32, ptr %11, align 4
  %36 = add nsw i32 %34, %35
  %37 = ashr i32 %36, 20
  %38 = call noundef zeroext i8 @_ZN2cvL13saturate_castIhEET_i(i32 noundef %37)
  %39 = load ptr, ptr %14, align 8
  store i8 %38, ptr %39, align 1
  %40 = load i32, ptr %18, align 4
  %41 = load i32, ptr %12, align 4
  %42 = add nsw i32 %40, %41
  %43 = ashr i32 %42, 20
  %44 = call noundef zeroext i8 @_ZN2cvL13saturate_castIhEET_i(i32 noundef %43)
  %45 = load ptr, ptr %15, align 8
  store i8 %44, ptr %45, align 1
  %46 = load ptr, ptr %16, align 8
  store i8 -1, ptr %46, align 1
  ret void
}

; Function Attrs: mustprogress nounwind uwtable
define internal void @_ZN2cv3hal12cpu_baseline12_GLOBAL__N_19uvToRGBuvEhhRiS3_S3_(i8 noundef zeroext %0, i8 noundef zeroext %1, ptr noundef nonnull align 4 dereferenceable(4) %2, ptr noundef nonnull align 4 dereferenceable(4) %3, ptr noundef nonnull align 4 dereferenceable(4) %4) #2 {
  %6 = alloca i8, align 1
  %7 = alloca i8, align 1
  %8 = alloca ptr, align 8
  %9 = alloca ptr, align 8
  %10 = alloca ptr, align 8
  %11 = alloca i32, align 4
  %12 = alloca i32, align 4
  store i8 %0, ptr %6, align 1
  store i8 %1, ptr %7, align 1
  store ptr %2, ptr %8, align 8
  store ptr %3, ptr %9, align 8
  store ptr %4, ptr %10, align 8
  %13 = load i8, ptr %6, align 1
  %14 = zext i8 %13 to i32
  %15 = sub nsw i32 %14, 128
  store i32 %15, ptr %11, align 4
  %16 = load i8, ptr %7, align 1
  %17 = zext i8 %16 to i32
  %18 = sub nsw i32 %17, 128
  store i32 %18, ptr %12, align 4
  %19 = load i32, ptr %12, align 4
  %20 = mul nsw i32 1673527, %19
  %21 = add nsw i32 524288, %20
  %22 = load ptr, ptr %8, align 8
  store i32 %21, ptr %22, align 4
  %23 = load i32, ptr %12, align 4
  %24 = mul nsw i32 -852492, %23
  %25 = add nsw i32 524288, %24
  %26 = load i32, ptr %11, align 4
  %27 = mul nsw i32 -409993, %26
  %28 = add nsw i32 %25, %27
  %29 = load ptr, ptr %9, align 8
  store i32 %28, ptr %29, align 4
  %30 = load i32, ptr %11, align 4
  %31 = mul nsw i32 2116026, %30
  %32 = add nsw i32 524288, %31
  %33 = load ptr, ptr %10, align 8
  store i32 %32, ptr %33, align 4
  ret void
}

; Function Attrs: mustprogress uwtable
define internal void @_ZN2cv3hal12cpu_baseline12_GLOBAL__N_116cvtYuv42xxp2RGB8ILi2ELi3ELb0EEEvhhhhhhPhS4_(i8 noundef zeroext %0, i8 noundef zeroext %1, i8 noundef zeroext %2, i8 noundef zeroext %3, i8 noundef zeroext %4, i8 noundef zeroext %5, ptr noundef %6, ptr noundef %7) #0 {
  %9 = alloca i8, align 1
  %10 = alloca i8, align 1
  %11 = alloca i8, align 1
  %12 = alloca i8, align 1
  %13 = alloca i8, align 1
  %14 = alloca i8, align 1
  %15 = alloca ptr, align 8
  %16 = alloca ptr, align 8
  %17 = alloca i32, align 4
  %18 = alloca i32, align 4
  %19 = alloca i32, align 4
  %20 = alloca i8, align 1
  %21 = alloca i8, align 1
  %22 = alloca i8, align 1
  %23 = alloca i8, align 1
  %24 = alloca i8, align 1
  %25 = alloca i8, align 1
  %26 = alloca i8, align 1
  %27 = alloca i8, align 1
  store i8 %0, ptr %9, align 1
  store i8 %1, ptr %10, align 1
  store i8 %2, ptr %11, align 1
  store i8 %3, ptr %12, align 1
  store i8 %4, ptr %13, align 1
  store i8 %5, ptr %14, align 1
  store ptr %6, ptr %15, align 8
  store ptr %7, ptr %16, align 8
  %28 = load i8, ptr %9, align 1
  %29 = load i8, ptr %10, align 1
  call void @_ZN2cv3hal12cpu_baseline12_GLOBAL__N_19uvToRGBuvEhhRiS3_S3_(i8 noundef zeroext %28, i8 noundef zeroext %29, ptr noundef nonnull align 4 dereferenceable(4) %17, ptr noundef nonnull align 4 dereferenceable(4) %18, ptr noundef nonnull align 4 dereferenceable(4) %19)
  %30 = load i8, ptr %11, align 1
  %31 = load i32, ptr %17, align 4
  %32 = load i32, ptr %18, align 4
  %33 = load i32, ptr %19, align 4
  call void @_ZN2cv3hal12cpu_baseline12_GLOBAL__N_112yRGBuvToRGBAEhiiiRhS3_S3_S3_(i8 noundef zeroext %30, i32 noundef %31, i32 noundef %32, i32 noundef %33, ptr noundef nonnull align 1 dereferenceable(1) %20, ptr noundef nonnull align 1 dereferenceable(1) %21, ptr noundef nonnull align 1 dereferenceable(1) %22, ptr noundef nonnull align 1 dereferenceable(1) %23)
  %34 = load i8, ptr %12, align 1
  %35 = load i32, ptr %17, align 4
  %36 = load i32, ptr %18, align 4
  %37 = load i32, ptr %19, align 4
  call void @_ZN2cv3hal12cpu_baseline12_GLOBAL__N_112yRGBuvToRGBAEhiiiRhS3_S3_S3_(i8 noundef zeroext %34, i32 noundef %35, i32 noundef %36, i32 noundef %37, ptr noundef nonnull align 1 dereferenceable(1) %24, ptr noundef nonnull align 1 dereferenceable(1) %25, ptr noundef nonnull align 1 dereferenceable(1) %26, ptr noundef nonnull align 1 dereferenceable(1) %27)
  %38 = load i8, ptr %20, align 1
  %39 = load ptr, ptr %15, align 8
  %40 = getelementptr inbounds i8, ptr %39, i64 0
  store i8 %38, ptr %40, align 1
  %41 = load i8, ptr %21, align 1
  %42 = load ptr, ptr %15, align 8
  %43 = getelementptr inbounds i8, ptr %42, i64 1
  store i8 %41, ptr %43, align 1
  %44 = load i8, ptr %22, align 1
  %45 = load ptr, ptr %15, align 8
  %46 = getelementptr inbounds i8, ptr %45, i64 2
  store i8 %44, ptr %46, align 1
  %47 = load i8, ptr %24, align 1
  %48 = load ptr, ptr %15, align 8
  %49 = getelementptr inbounds i8, ptr %48, i64 3
  store i8 %47, ptr %49, align 1
  %50 = load i8, ptr %25, align 1
  %51 = load ptr, ptr %15, align 8
  %52 = getelementptr inbounds i8, ptr %51, i64 4
  store i8 %50, ptr %52, align 1
  %53 = load i8, ptr %26, align 1
  %54 = load ptr, ptr %15, align 8
  %55 = getelementptr inbounds i8, ptr %54, i64 5
  store i8 %53, ptr %55, align 1
  ret void
}

; Function Attrs: mustprogress uwtable
define internal void @_ZNK2cv3hal12cpu_baseline12_GLOBAL__N_119YUV422toRGB8InvokerILi2ELi0ELi0ELi3EEclERKNS_5RangeE(ptr noundef nonnull align 8 dereferenceable(44) %0, ptr noundef nonnull align 4 dereferenceable(8) %1) unnamed_addr #0 align 2 {
  %3 = alloca ptr, align 8
  %4 = alloca ptr, align 8
  %5 = alloca i32, align 4
  %6 = alloca i32, align 4
  %7 = alloca i32, align 4
  %8 = alloca i32, align 4
  %9 = alloca ptr, align 8
  %10 = alloca i32, align 4
  %11 = alloca ptr, align 8
  %12 = alloca i32, align 4
  %13 = alloca i8, align 1
  %14 = alloca i8, align 1
  %15 = alloca i8, align 1
  %16 = alloca i8, align 1
  store ptr %0, ptr %3, align 8
  store ptr %1, ptr %4, align 8
  %17 = load ptr, ptr %3, align 8
  %18 = load ptr, ptr %4, align 8
  %19 = getelementptr inbounds %"class.cv::Range", ptr %18, i32 0, i32 0
  %20 = load i32, ptr %19, align 4
  store i32 %20, ptr %5, align 4
  %21 = load ptr, ptr %4, align 8
  %22 = getelementptr inbounds %"class.cv::Range", ptr %21, i32 0, i32 1
  %23 = load i32, ptr %22, align 4
  store i32 %23, ptr %6, align 4
  store i32 1, ptr %7, align 4
  store i32 3, ptr %8, align 4
  %24 = getelementptr inbounds %"struct.cv::hal::cpu_baseline::(anonymous namespace)::YUV422toRGB8Invoker.27", ptr %17, i32 0, i32 3
  %25 = load ptr, ptr %24, align 8
  %26 = load i32, ptr %5, align 4
  %27 = sext i32 %26 to i64
  %28 = getelementptr inbounds %"struct.cv::hal::cpu_baseline::(anonymous namespace)::YUV422toRGB8Invoker.27", ptr %17, i32 0, i32 4
  %29 = load i64, ptr %28, align 8
  %30 = mul i64 %27, %29
  %31 = getelementptr inbounds i8, ptr %25, i64 %30
  store ptr %31, ptr %9, align 8
  %32 = load i32, ptr %5, align 4
  store i32 %32, ptr %10, align 4
  br label %33

33:                                               ; preds = %89, %2
  %34 = load i32, ptr %10, align 4
  %35 = load i32, ptr %6, align 4
  %36 = icmp slt i32 %34, %35
  br i1 %36, label %37, label %96

37:                                               ; preds = %33
  %38 = getelementptr inbounds %"struct.cv::hal::cpu_baseline::(anonymous namespace)::YUV422toRGB8Invoker.27", ptr %17, i32 0, i32 1
  %39 = load ptr, ptr %38, align 8
  %40 = getelementptr inbounds %"struct.cv::hal::cpu_baseline::(anonymous namespace)::YUV422toRGB8Invoker.27", ptr %17, i32 0, i32 2
  %41 = load i64, ptr %40, align 8
  %42 = load i32, ptr %10, align 4
  %43 = sext i32 %42 to i64
  %44 = mul i64 %41, %43
  %45 = getelementptr inbounds i8, ptr %39, i64 %44
  store ptr %45, ptr %11, align 8
  store i32 0, ptr %12, align 4
  br label %46

46:                                               ; preds = %83, %37
  %47 = load i32, ptr %12, align 4
  %48 = getelementptr inbounds %"struct.cv::hal::cpu_baseline::(anonymous namespace)::YUV422toRGB8Invoker.27", ptr %17, i32 0, i32 5
  %49 = load i32, ptr %48, align 8
  %50 = mul nsw i32 2, %49
  %51 = icmp slt i32 %47, %50
  br i1 %51, label %52, label %88

52:                                               ; preds = %46
  %53 = load ptr, ptr %9, align 8
  %54 = load i32, ptr %12, align 4
  %55 = add nsw i32 %54, 1
  %56 = sext i32 %55 to i64
  %57 = getelementptr inbounds i8, ptr %53, i64 %56
  %58 = load i8, ptr %57, align 1
  store i8 %58, ptr %13, align 1
  %59 = load ptr, ptr %9, align 8
  %60 = load i32, ptr %12, align 4
  %61 = add nsw i32 %60, 3
  %62 = sext i32 %61 to i64
  %63 = getelementptr inbounds i8, ptr %59, i64 %62
  %64 = load i8, ptr %63, align 1
  store i8 %64, ptr %14, align 1
  %65 = load ptr, ptr %9, align 8
  %66 = load i32, ptr %12, align 4
  %67 = add nsw i32 %66, 0
  %68 = sext i32 %67 to i64
  %69 = getelementptr inbounds i8, ptr %65, i64 %68
  %70 = load i8, ptr %69, align 1
  store i8 %70, ptr %15, align 1
  %71 = load ptr, ptr %9, align 8
  %72 = load i32, ptr %12, align 4
  %73 = add nsw i32 %72, 0
  %74 = add nsw i32 %73, 2
  %75 = sext i32 %74 to i64
  %76 = getelementptr inbounds i8, ptr %71, i64 %75
  %77 = load i8, ptr %76, align 1
  store i8 %77, ptr %16, align 1
  %78 = load i8, ptr %13, align 1
  %79 = load i8, ptr %14, align 1
  %80 = load i8, ptr %15, align 1
  %81 = load i8, ptr %16, align 1
  %82 = load ptr, ptr %11, align 8
  call void @_ZN2cv3hal12cpu_baseline12_GLOBAL__N_116cvtYuv42xxp2RGB8ILi2ELi3ELb0EEEvhhhhhhPhS4_(i8 noundef zeroext %78, i8 noundef zeroext %79, i8 noundef zeroext %80, i8 noundef zeroext %81, i8 noundef zeroext 0, i8 noundef zeroext 0, ptr noundef %82, ptr noundef null)
  br label %83

83:                                               ; preds = %52
  %84 = load i32, ptr %12, align 4
  %85 = add nsw i32 %84, 4
  store i32 %85, ptr %12, align 4
  %86 = load ptr, ptr %11, align 8
  %87 = getelementptr inbounds i8, ptr %86, i64 6
  store ptr %87, ptr %11, align 8
  br label %46, !llvm.loop !55

88:                                               ; preds = %46
  br label %89

89:                                               ; preds = %88
  %90 = load i32, ptr %10, align 4
  %91 = add nsw i32 %90, 1
  store i32 %91, ptr %10, align 4
  %92 = getelementptr inbounds %"struct.cv::hal::cpu_baseline::(anonymous namespace)::YUV422toRGB8Invoker.27", ptr %17, i32 0, i32 4
  %93 = load i64, ptr %92, align 8
  %94 = load ptr, ptr %9, align 8
  %95 = getelementptr inbounds i8, ptr %94, i64 %93
  store ptr %95, ptr %9, align 8
  br label %33, !llvm.loop !56

96:                                               ; preds = %33
  ret void
}