; Function Attrs: mustprogress nofree norecurse nosync nounwind memory(readwrite, inaccessiblemem: none) uwtable
define internal void @_ZNK2cv3hal12cpu_baseline12_GLOBAL__N_119YUV422toRGB8InvokerILi2ELi0ELi0ELi3EEclERKNS_5RangeE(ptr nocapture noundef nonnull readonly align 8 dereferenceable(44) %0, ptr nocapture noundef nonnull readonly align 4 dereferenceable(8) %1) unnamed_addr #5 align 2 {
  %3 = load i32, ptr %1, align 4
  %4 = getelementptr inbounds i8, ptr %1, i64 4
  %5 = load i32, ptr %4, align 4
  %6 = getelementptr inbounds i8, ptr %0, i64 32
  %7 = icmp slt i32 %3, %5
  br i1 %7, label %.lr.ph33, label %._crit_edge34

.lr.ph33:                                         ; preds = %2
  %8 = getelementptr inbounds i8, ptr %0, i64 24
  %9 = load ptr, ptr %8, align 8
  %10 = load i64, ptr %6, align 8
  %11 = sext i32 %3 to i64
  %12 = mul i64 %10, %11
  %13 = getelementptr inbounds i8, ptr %9, i64 %12
  %14 = getelementptr inbounds i8, ptr %0, i64 8
  %15 = getelementptr inbounds i8, ptr %0, i64 16
  %16 = getelementptr inbounds i8, ptr %0, i64 40
  %wide.trip.count = sext i32 %5 to i64
  %.pre = load i32, ptr %16, align 8
  br label %17

17:                                               ; preds = %.lr.ph33, %._crit_edge
  %18 = phi i64 [ %10, %.lr.ph33 ], [ %96, %._crit_edge ]
  %19 = phi i32 [ %.pre, %.lr.ph33 ], [ %97, %._crit_edge ]
  %indvars.iv36 = phi i64 [ %11, %.lr.ph33 ], [ %indvars.iv.next37, %._crit_edge ]
  %.031 = phi ptr [ %13, %.lr.ph33 ], [ %98, %._crit_edge ]
  %20 = icmp sgt i32 %19, 0
  br i1 %20, label %.lr.ph.preheader, label %._crit_edge

.lr.ph.preheader:                                 ; preds = %17
  %21 = load ptr, ptr %14, align 8
  %22 = load i64, ptr %15, align 8
  %23 = mul i64 %22, %indvars.iv36
  %24 = getelementptr inbounds i8, ptr %21, i64 %23
  br label %.lr.ph

.lr.ph:                                           ; preds = %.lr.ph.preheader, %.lr.ph
  %indvars.iv = phi i64 [ 0, %.lr.ph.preheader ], [ %indvars.iv.next, %.lr.ph ]
  %.02629 = phi ptr [ %24, %.lr.ph.preheader ], [ %91, %.lr.ph ]
  %25 = or disjoint i64 %indvars.iv, 1
  %26 = getelementptr inbounds i8, ptr %.031, i64 %25
  %27 = load i8, ptr %26, align 1
  %28 = or disjoint i64 %indvars.iv, 3
  %29 = getelementptr inbounds i8, ptr %.031, i64 %28
  %30 = load i8, ptr %29, align 1
  %31 = getelementptr inbounds i8, ptr %.031, i64 %indvars.iv
  %32 = load i8, ptr %31, align 1
  %33 = or disjoint i64 %indvars.iv, 2
  %34 = getelementptr inbounds i8, ptr %.031, i64 %33
  %35 = load i8, ptr %34, align 1
  %36 = zext i8 %27 to i32
  %37 = add nsw i32 %36, -128
  %38 = zext i8 %30 to i32
  %39 = add nsw i32 %38, -128
  %40 = mul nsw i32 %39, 1673527
  %41 = add nsw i32 %40, 524288
  %42 = mul nsw i32 %39, -852492
  %43 = mul nsw i32 %37, -409993
  %44 = add nsw i32 %43, 524288
  %45 = add nsw i32 %44, %42
  %46 = mul nsw i32 %37, 2116026
  %47 = add nsw i32 %46, 524288
  %48 = tail call i8 @llvm.umax.i8(i8 %32, i8 16)
  %49 = zext i8 %48 to i32
  %50 = mul nuw nsw i32 %49, 1220542
  %51 = add nsw i32 %50, -19528672
  %52 = add nsw i32 %51, %41
  %53 = ashr i32 %52, 20
  %54 = tail call i32 @llvm.smax.i32(i32 %53, i32 0)
  %55 = tail call i32 @llvm.umin.i32(i32 %54, i32 255)
  %56 = trunc nuw i32 %55 to i8
  %57 = add nsw i32 %51, %45
  %58 = ashr i32 %57, 20
  %59 = tail call i32 @llvm.smax.i32(i32 %58, i32 0)
  %60 = tail call i32 @llvm.umin.i32(i32 %59, i32 255)
  %61 = trunc nuw i32 %60 to i8
  %62 = add nsw i32 %51, %47
  %63 = ashr i32 %62, 20
  %64 = tail call i32 @llvm.smax.i32(i32 %63, i32 0)
  %65 = tail call i32 @llvm.umin.i32(i32 %64, i32 255)
  %66 = trunc nuw i32 %65 to i8
  %67 = tail call i8 @llvm.umax.i8(i8 %35, i8 16)
  %68 = zext i8 %67 to i32
  %69 = mul nuw nsw i32 %68, 1220542
  %70 = add nsw i32 %69, -19528672
  %71 = add nsw i32 %70, %41
  %72 = ashr i32 %71, 20
  %73 = tail call i32 @llvm.smax.i32(i32 %72, i32 0)
  %74 = tail call i32 @llvm.umin.i32(i32 %73, i32 255)
  %75 = trunc nuw i32 %74 to i8
  %76 = add nsw i32 %70, %45
  %77 = ashr i32 %76, 20
  %78 = tail call i32 @llvm.smax.i32(i32 %77, i32 0)
  %79 = tail call i32 @llvm.umin.i32(i32 %78, i32 255)
  %80 = trunc nuw i32 %79 to i8
  %81 = add nsw i32 %70, %47
  %82 = ashr i32 %81, 20
  %83 = tail call i32 @llvm.smax.i32(i32 %82, i32 0)
  %84 = tail call i32 @llvm.umin.i32(i32 %83, i32 255)
  %85 = trunc nuw i32 %84 to i8
  store i8 %56, ptr %.02629, align 1
  %86 = getelementptr inbounds i8, ptr %.02629, i64 1
  store i8 %61, ptr %86, align 1
  %87 = getelementptr inbounds i8, ptr %.02629, i64 2
  store i8 %66, ptr %87, align 1
  %88 = getelementptr inbounds i8, ptr %.02629, i64 3
  store i8 %75, ptr %88, align 1
  %89 = getelementptr inbounds i8, ptr %.02629, i64 4
  store i8 %80, ptr %89, align 1
  %90 = getelementptr inbounds i8, ptr %.02629, i64 5
  store i8 %85, ptr %90, align 1
  %indvars.iv.next = add nuw nsw i64 %indvars.iv, 4
  %91 = getelementptr inbounds i8, ptr %.02629, i64 6
  %92 = load i32, ptr %16, align 8
  %93 = shl nsw i32 %92, 1
  %94 = sext i32 %93 to i64
  %95 = icmp slt i64 %indvars.iv.next, %94
  br i1 %95, label %.lr.ph, label %._crit_edge.loopexit, !llvm.loop !130

._crit_edge.loopexit:                             ; preds = %.lr.ph
  %.pre39 = load i64, ptr %6, align 8
  br label %._crit_edge

._crit_edge:                                      ; preds = %._crit_edge.loopexit, %17
  %96 = phi i64 [ %.pre39, %._crit_edge.loopexit ], [ %18, %17 ]
  %97 = phi i32 [ %92, %._crit_edge.loopexit ], [ %19, %17 ]
  %indvars.iv.next37 = add nsw i64 %indvars.iv36, 1
  %98 = getelementptr inbounds i8, ptr %.031, i64 %96
  %exitcond.not = icmp eq i64 %indvars.iv.next37, %wide.trip.count
  br i1 %exitcond.not, label %._crit_edge34, label %17, !llvm.loop !131

._crit_edge34:                                    ; preds = %._crit_edge, %2
  ret void
}